(lp0
(I100
F0.9786539
tp1
a(I200
F1.2140469999999999
tp2
a(I300
F1.4994710000000002
tp3
a(I400
F1.8871030000000002
tp4
a(I500
F2.2898800000000006
tp5
a(I600
F3.223085
tp6
a(I700
F3.2534289999999997
tp7
a(I800
F4.190078
tp8
a(I900
F4.306338
tp9
a(I1000
F5.331185
tp10
a.